# extern int helper(int i);
# void use(int * x, int * y) {
#  *x += 4;
#  *y -= 2;
# }
#
# int x = 0;
# int y = 1;
# int  main(int argc, char *argv[]) {
#   x = argc;
#   y = argc + 3;
#   use(&x, &y);
#   return x + helper(y);
# }

	.text
	.file	"main.cpp"
	.file	1 "." "main.cpp"
	.globl	_Z3usePiS_                      # -- Begin function _Z3usePiS_
	.p2align	4, 0x90
	.type	_Z3usePiS_,@function
_Z3usePiS_:                             # @_Z3usePiS_
.Lfunc_begin0:
	.loc	1 2 0                           # main.cpp:2:0
	.cfi_startproc
# %bb.0:                                # %entry
	pushq	%rbp
	.cfi_def_cfa_offset 16
	.cfi_offset %rbp, -16
	movq	%rsp, %rbp
	.cfi_def_cfa_register %rbp
	movq	%rdi, -8(%rbp)
	movq	%rsi, -16(%rbp)
.Ltmp0:
	.loc	1 3 3 prologue_end              # main.cpp:3:3
	movq	-8(%rbp), %rax
	.loc	1 3 5 is_stmt 0                 # main.cpp:3:5
	movl	(%rax), %ecx
	addl	$4, %ecx
	movl	%ecx, (%rax)
	.loc	1 4 3 is_stmt 1                 # main.cpp:4:3
	movq	-16(%rbp), %rax
	.loc	1 4 5 is_stmt 0                 # main.cpp:4:5
	movl	(%rax), %ecx
	subl	$2, %ecx
	movl	%ecx, (%rax)
	.loc	1 5 1 is_stmt 1                 # main.cpp:5:1
	popq	%rbp
	.cfi_def_cfa %rsp, 8
	retq
.Ltmp1:
.Lfunc_end0:
	.size	_Z3usePiS_, .Lfunc_end0-_Z3usePiS_
	.cfi_endproc
                                        # -- End function
	.globl	main                            # -- Begin function main
	.p2align	4, 0x90
	.type	main,@function
main:                                   # @main
.Lfunc_begin1:
	.loc	1 9 0                           # main.cpp:9:0
	.cfi_startproc
# %bb.0:                                # %entry
	pushq	%rbp
	.cfi_def_cfa_offset 16
	.cfi_offset %rbp, -16
	movq	%rsp, %rbp
	.cfi_def_cfa_register %rbp
	subq	$32, %rsp
	movl	$0, -4(%rbp)
	movl	%edi, -8(%rbp)
	movq	%rsi, -16(%rbp)
.Ltmp2:
	.loc	1 10 7 prologue_end             # main.cpp:10:7
	movl	-8(%rbp), %eax
	.loc	1 10 5 is_stmt 0                # main.cpp:10:5
	movl	%eax, x
	.loc	1 11 7 is_stmt 1                # main.cpp:11:7
	movl	-8(%rbp), %eax
	.loc	1 11 12 is_stmt 0               # main.cpp:11:12
	addl	$3, %eax
	.loc	1 11 5                          # main.cpp:11:5
	movl	%eax, y
	.loc	1 12 3 is_stmt 1                # main.cpp:12:3
	movabsq	$x, %rdi
	movabsq	$y, %rsi
	callq	_Z3usePiS_
	.loc	1 13 10                         # main.cpp:13:10
	movl	x, %eax
	movl	%eax, -20(%rbp)                 # 4-byte Spill
	.loc	1 13 21 is_stmt 0               # main.cpp:13:21
	movl	y, %edi
	.loc	1 13 14                         # main.cpp:13:14
	callq	_Z6helperi
	movl	%eax, %ecx
	movl	-20(%rbp), %eax                 # 4-byte Reload
	.loc	1 13 12                         # main.cpp:13:12
	addl	%ecx, %eax
	.loc	1 13 3                          # main.cpp:13:3
	addq	$32, %rsp
	popq	%rbp
	.cfi_def_cfa %rsp, 8
	retq
.Ltmp3:
.Lfunc_end1:
	.size	main, .Lfunc_end1-main
	.cfi_endproc
                                        # -- End function
	.type	x,@object                       # @x
	.bss
	.globl	x
	.p2align	2
x:
	.long	0                               # 0x0
	.size	x, 4

	.type	y,@object                       # @y
	.data
	.globl	y
	.p2align	2
y:
	.long	1                               # 0x1
	.size	y, 4

	.section	".note.GNU-stack","",@progbits
	.addrsig
	.addrsig_sym _Z3usePiS_
	.addrsig_sym _Z6helperi
	.addrsig_sym x
	.addrsig_sym y