MODULE windows x86 897DD83EA8C8411897F3A925EE4BF7411 unwind-via-stack-win.pdb
INFO CODE_ID 5D499B5C5000 unwind-via-stack-win.exe
PUBLIC 1000  0 dummy
PUBLIC 1010 0 call_many
PUBLIC 1080 0 main
PUBLIC 1090 0 many_pointer_args
PUBLIC 1100 0 complex_rasearch
PUBLIC 1110 0 esp_rasearch
PUBLIC 1120 0 nonzero_frame_size
STACK WIN 4 1010 6d 0 0 0 0 0 0 1 $T0 .raSearch = $eip $T0 ^ = $esp $T0 4 + =
STACK WIN 4 1080 8 0 0 0 0 0 0 1 $T0 .raSearch = $eip $T0 ^ = $esp $T0 4 + =
STACK WIN 4 1090 5 0 0 50 0 0 0 1 $T0 .raSearch = $eip $T0 ^ = $esp $T0 4 + =
STACK WIN 4 1100 4 0 0 0 0 0 0 1 $T0 .raSearch 80 + = $eip $T0 ^ = $esp $T0 4 + =
STACK WIN 4 1110 4 0 0 0 0 0 0 1 $T0 .raSearch = $eip $T0 ^ = $esp .raSearch 4 + =
STACK WIN 4 1120 4 0 0 0 4 8 0 1 $T0 .raSearch = $eip $T0 ^ = $esp $T0 4 + =
