MODULE windows x86 897DD83EA8C8411897F3A925EE4BF7411 unwind-via-stack-win.pdb
INFO CODE_ID 5D499B5C5000 unwind-via-stack-win.exe
PUBLIC 1000 0 dummy
PUBLIC 1010 0 call_many
PUBLIC 1080 0 main
PUBLIC 1090 0 many_pointer_args
PUBLIC 1100 0 bogus_rule
PUBLIC 1110 0 bogus_cfa_rhs
PUBLIC 1120 0 bogus_esp_rhs
PUBLIC 1130 0 temporary_var
STACK WIN 4 1010 6d 0 0 0 0 0 0 1 $T0 $esp 80 + = $eip $T0 ^ = $esp $T0 4 + =
STACK WIN 4 1080 8 0 0 0 0 0 0 1 $T0 $esp = $eip $T0 ^ = $esp $T0 4 + =
STACK WIN 4 1090 5 0 0 50 0 0 0 1 $T0 $esp = $eip $T0 ^ = $esp $T0 4 + =
STACK WIN 4 1100 4 0 0 0 0 0 0 1 bogus
STACK WIN 4 1110 4 0 0 0 0 0 0 1 $T0 $bogus = $eip $T0 ^ = $esp $T0 4 + =
STACK WIN 4 1120 4 0 0 0 0 0 0 1 $T0 $esp = $eip $T0 ^ = $esp $bogus 4 + =
STACK WIN 4 1130 4 0 0 0 0 0 0 1 $T0 $esp = $bogus $T0 = $eip $bogus ^ = $esp $T0 4 + =
