# Source (tiny.cc):
#   void a() {}
#   void b() {}
#   int main(int argc, char** argv) {
#     void(*ptr)();
#     if (argc == 1)
#       ptr = &a;
#     else
#       ptr = &b;
#     ptr();
#   }
# Compile with:
#    clang++ -gmlt tiny.cc -S -o tiny.s

  .text
  .file "tiny.cc"
  .globl  _Z1av                   # -- Begin function _Z1av
  .p2align  4, 0x90
  .type _Z1av,@function
_Z1av:                                  # @_Z1av
.Lfunc_begin0:
  .file 1 "tiny.cc"
  .loc  1 1 0                   # tiny.cc:1:0
  .cfi_startproc
# %bb.0:
  pushq %rbp
  .cfi_def_cfa_offset 16
  .cfi_offset %rbp, -16
  movq  %rsp, %rbp
  .cfi_def_cfa_register %rbp
.Ltmp0:
  .loc  1 1 11 prologue_end     # tiny.cc:1:11
  popq  %rbp
  retq
.Ltmp1:
.Lfunc_end0:
  .size _Z1av, .Lfunc_end0-_Z1av
  .cfi_endproc
                                        # -- End function
  .globl  _Z1bv                   # -- Begin function _Z1bv
  .p2align  4, 0x90
  .type _Z1bv,@function
_Z1bv:                                  # @_Z1bv
.Lfunc_begin1:
  .loc  1 2 0                   # tiny.cc:2:0
  .cfi_startproc
# %bb.0:
  pushq %rbp
  .cfi_def_cfa_offset 16
  .cfi_offset %rbp, -16
  movq  %rsp, %rbp
  .cfi_def_cfa_register %rbp
.Ltmp2:
  .loc  1 2 11 prologue_end     # tiny.cc:2:11
  popq  %rbp
  retq
.Ltmp3:
.Lfunc_end1:
  .size _Z1bv, .Lfunc_end1-_Z1bv
  .cfi_endproc
                                        # -- End function
  .globl  main                    # -- Begin function main
  .p2align  4, 0x90
  .type main,@function
main:                                   # @main
.Lfunc_begin2:
  .loc  1 4 0                   # tiny.cc:4:0
  .cfi_startproc
# %bb.0:
  pushq %rbp
  .cfi_def_cfa_offset 16
  .cfi_offset %rbp, -16
  movq  %rsp, %rbp
  .cfi_def_cfa_register %rbp
  subq  $32, %rsp
  movl  $0, -4(%rbp)
  movl  %edi, -8(%rbp)
  movq  %rsi, -16(%rbp)
.Ltmp4:
  .loc  1 6 12 prologue_end     # tiny.cc:6:12
  cmpl  $1, -8(%rbp)
  .loc  1 6 7 is_stmt 0         # tiny.cc:6:7
  jne .LBB2_2
# %bb.1:
  .loc  1 0 7                   # tiny.cc:0:7
  movabsq $_Z1av, %rax
  .loc  1 7 9 is_stmt 1         # tiny.cc:7:9
  movq  %rax, -24(%rbp)
  .loc  1 7 5 is_stmt 0         # tiny.cc:7:5
  jmp .LBB2_3
.LBB2_2:
  .loc  1 0 5                   # tiny.cc:0:5
  movabsq $_Z1bv, %rax
  .loc  1 9 9 is_stmt 1         # tiny.cc:9:9
  movq  %rax, -24(%rbp)
.LBB2_3:
  .loc  1 11 3                  # tiny.cc:11:3
  callq *-24(%rbp)
  .loc  1 12 1                  # tiny.cc:12:1
  movl  -4(%rbp), %eax
  addq  $32, %rsp
  popq  %rbp
  retq
.Ltmp5:
.Lfunc_end2:
  .size main, .Lfunc_end2-main
  .cfi_endproc
                                        # -- End function
  .section  ".note.GNU-stack","",@progbits